target datalayout = "e-m:e-p270:32:32-p271:32:32-p272:64:64-i64:64-i128:128-f80:128-n8:16:32:64-S128"
target triple = "x86_64-pc-linux-gnu"

%"class.std::pmr::polymorphic_allocator.29" = type { ptr }
%"class.pro::details::allocated_ptr" = type { %"class.std::pmr::polymorphic_allocator.29", ptr }
%"class.(anonymous namespace)::Rectangle" = type { double, double }
%"struct.(anonymous namespace)::spec::Area::__FT" = type { i8 }

; Function Attrs: mustprogress nounwind uwtable
define internal noundef ptr @_ZSt12__to_addressIN12_GLOBAL__N_19RectangleEEPT_S3_(ptr noundef %0) #7 {
  %2 = alloca ptr, align 8
  store ptr %0, ptr %2, align 8
  %3 = load ptr, ptr %2, align 8
  ret ptr %3
}

; Function Attrs: mustprogress nounwind uwtable
define internal noundef ptr @_ZNK3pro7details13allocated_ptrIN12_GLOBAL__N_19RectangleENSt3pmr21polymorphic_allocatorISt4byteEEEptEv(ptr noundef nonnull align 8 dereferenceable(16) %0) #7 align 2 {
  %2 = alloca ptr, align 8
  store ptr %0, ptr %2, align 8
  %3 = load ptr, ptr %2, align 8
  %4 = getelementptr inbounds %"class.pro::details::allocated_ptr", ptr %3, i32 0, i32 1
  %5 = load ptr, ptr %4, align 8
  ret ptr %5
}

; Function Attrs: mustprogress nounwind uwtable
define internal noundef double @_ZNK12_GLOBAL__N_19Rectangle4AreaEv(ptr noundef nonnull align 8 dereferenceable(16) %0) #7 align 2 {
  %2 = alloca ptr, align 8
  store ptr %0, ptr %2, align 8
  %3 = load ptr, ptr %2, align 8
  %4 = getelementptr inbounds %"class.(anonymous namespace)::Rectangle", ptr %3, i32 0, i32 0
  %5 = load double, ptr %4, align 8
  %6 = getelementptr inbounds %"class.(anonymous namespace)::Rectangle", ptr %3, i32 0, i32 1
  %7 = load double, ptr %6, align 8
  %8 = fmul double %5, %7
  ret double %8
}

; Function Attrs: mustprogress nounwind uwtable
define internal noundef ptr @_ZSt12__to_addressIN3pro7details13allocated_ptrIN12_GLOBAL__N_19RectangleENSt3pmr21polymorphic_allocatorISt4byteEEEEJEEDaRKT_DpT0_(ptr noundef nonnull align 8 dereferenceable(16) %0) #7 {
  %2 = alloca ptr, align 8
  store ptr %0, ptr %2, align 8
  %3 = load ptr, ptr %2, align 8
  %4 = call noundef ptr @_ZNK3pro7details13allocated_ptrIN12_GLOBAL__N_19RectangleENSt3pmr21polymorphic_allocatorISt4byteEEEptEv(ptr noundef nonnull align 8 dereferenceable(16) %3) #3
  %5 = call noundef ptr @_ZSt12__to_addressIN12_GLOBAL__N_19RectangleEEPT_S3_(ptr noundef %4) #3
  ret ptr %5
}

; Function Attrs: mustprogress nounwind uwtable
define internal noundef double @_ZN12_GLOBAL__N_14spec4Area4__FTclINS_9RectangleEJEEEDcRT_DpOT0_QrqXcldtfp_4Areaspclgssr3stdE7forwardIS7_Efp0_EEE(ptr noundef nonnull align 1 dereferenceable(1) %0, ptr noundef nonnull align 8 dereferenceable(16) %1) #7 align 2 {
  %3 = alloca ptr, align 8
  %4 = alloca ptr, align 8
  store ptr %0, ptr %3, align 8
  store ptr %1, ptr %4, align 8
  %5 = load ptr, ptr %4, align 8
  %6 = call noundef double @_ZNK12_GLOBAL__N_19Rectangle4AreaEv(ptr noundef nonnull align 8 dereferenceable(16) %5) #3
  ret double %6
}

; Function Attrs: mustprogress nounwind uwtable
define internal noundef ptr @_ZSt10to_addressIN3pro7details13allocated_ptrIN12_GLOBAL__N_19RectangleENSt3pmr21polymorphic_allocatorISt4byteEEEEEDaRKT_(ptr noundef nonnull align 8 dereferenceable(16) %0) #7 {
  %2 = alloca ptr, align 8
  store ptr %0, ptr %2, align 8
  %3 = load ptr, ptr %2, align 8
  %4 = call noundef ptr @_ZSt12__to_addressIN3pro7details13allocated_ptrIN12_GLOBAL__N_19RectangleENSt3pmr21polymorphic_allocatorISt4byteEEEEJEEDaRKT_DpT0_(ptr noundef nonnull align 8 dereferenceable(16) %3) #3
  ret ptr %4
}

; Function Attrs: noreturn nounwind uwtable
define linkonce_odr hidden void @__clang_call_terminate(ptr noundef %0) #9 comdat {
  %2 = call ptr @__cxa_begin_catch(ptr %0) #3
  call void @_ZSt9terminatev() #20
  unreachable
}

; Function Attrs: mustprogress nounwind uwtable
define internal noundef double @_ZN3pro7details15invoke_dispatchIN12_GLOBAL__N_14spec4Area4__FTEdJRNS2_9RectangleEEEET0_DpOT1_(ptr noundef nonnull align 8 dereferenceable(16) %0) #7 {
  %2 = alloca ptr, align 8
  %3 = alloca %"struct.(anonymous namespace)::spec::Area::__FT", align 1
  store ptr %0, ptr %2, align 8
  %4 = load ptr, ptr %2, align 8
  %5 = call noundef double @_ZN12_GLOBAL__N_14spec4Area4__FTclINS_9RectangleEJEEEDcRT_DpOT0_QrqXcldtfp_4Areaspclgssr3stdE7forwardIS7_Efp0_EEE(ptr noundef nonnull align 1 dereferenceable(1) %3, ptr noundef nonnull align 8 dereferenceable(16) %4) #3
  ret double %5
}

; Function Attrs: mustprogress nounwind uwtable
define internal noundef nonnull align 8 dereferenceable(16) ptr @_ZN3pro7details10ptr_traitsINS0_13allocated_ptrIN12_GLOBAL__N_19RectangleENSt3pmr21polymorphic_allocatorISt4byteEEEEE11dereferenceERKS9_(ptr noundef nonnull align 8 dereferenceable(16) %0) #7 align 2 {
  %2 = alloca ptr, align 8
  store ptr %0, ptr %2, align 8
  %3 = load ptr, ptr %2, align 8
  %4 = call noundef ptr @_ZSt10to_addressIN3pro7details13allocated_ptrIN12_GLOBAL__N_19RectangleENSt3pmr21polymorphic_allocatorISt4byteEEEEEDaRKT_(ptr noundef nonnull align 8 dereferenceable(16) %3) #3
  ret ptr %4
}

; Function Attrs: mustprogress nounwind uwtable
define internal noundef ptr @_ZSt7launderIKN3pro7details13allocated_ptrIN12_GLOBAL__N_19RectangleENSt3pmr21polymorphic_allocatorISt4byteEEEEEPT_SC_(ptr noundef %0) #7 {
  %2 = alloca ptr, align 8
  store ptr %0, ptr %2, align 8
  %3 = load ptr, ptr %2, align 8
  ret ptr %3
}

; Function Attrs: mustprogress nounwind uwtable
define internal noundef double @_ZN3pro7details25invocation_dispatcher_refINS0_13allocated_ptrIN12_GLOBAL__N_19RectangleENSt3pmr21polymorphic_allocatorISt4byteEEEENS3_4spec4Area4__FTEdJEEET1_PKS7_DpT2_(ptr noundef %0) #7 personality ptr @__gxx_personality_v0 {
  %2 = alloca ptr, align 8
  store ptr %0, ptr %2, align 8
  %3 = load ptr, ptr %2, align 8
  %4 = call noundef ptr @_ZSt7launderIKN3pro7details13allocated_ptrIN12_GLOBAL__N_19RectangleENSt3pmr21polymorphic_allocatorISt4byteEEEEEPT_SC_(ptr noundef %3) #3
  %5 = call noundef nonnull align 8 dereferenceable(16) ptr @_ZN3pro7details10ptr_traitsINS0_13allocated_ptrIN12_GLOBAL__N_19RectangleENSt3pmr21polymorphic_allocatorISt4byteEEEEE11dereferenceERKS9_(ptr noundef nonnull align 8 dereferenceable(16) %4) #3
  %6 = invoke noundef double @_ZN3pro7details15invoke_dispatchIN12_GLOBAL__N_14spec4Area4__FTEdJRNS2_9RectangleEEEET0_DpOT1_(ptr noundef nonnull align 8 dereferenceable(16) %5)
          to label %7 unwind label %8

7:                                                ; preds = %1
  ret double %6

8:                                                ; preds = %1
  %9 = landingpad { ptr, i32 }
          catch ptr null
  %10 = extractvalue { ptr, i32 } %9, 0
  call void @__clang_call_terminate(ptr %10) #20
  unreachable
}