; Function Attrs: mustprogress nofree norecurse nosync nounwind willreturn memory(read, inaccessiblemem: none) uwtable
define internal noundef double @_ZN3pro7details25invocation_dispatcher_refINS0_13allocated_ptrIN12_GLOBAL__N_19RectangleENSt3pmr21polymorphic_allocatorISt4byteEEEENS3_4spec4Area4__FTEdJEEET1_PKS7_DpT2_(ptr nocapture noundef readonly %0) #13 personality ptr @__gxx_personality_v0 {
  %2 = getelementptr i8, ptr %0, i64 8
  %.val = load ptr, ptr %2, align 8
  %.val1 = load double, ptr %.val, align 8
  %3 = getelementptr i8, ptr %.val, i64 8
  %.val2 = load double, ptr %3, align 8
  %4 = fmul double %.val1, %.val2
  ret double %4
}